; Function Attrs: nounwind uwtable
define ptr @l_StateRefT_x27_run_x27___rarg(ptr noundef %0, ptr noundef %1, ptr readnone captures(none) %2, ptr noundef %3, ptr noundef %4) #0 {
  %6 = getelementptr inbounds nuw i8, ptr %0, i64 16
  %7 = load ptr, ptr %6, align 8, !tbaa !4
  %8 = ptrtoint ptr %7 to i64
  %9 = and i64 %8, 1
  %.not = icmp eq i64 %9, 0
  br i1 %.not, label %10, label %lean_inc.exit32

10:                                               ; preds = %5
  %.val.i = load i32, ptr %7, align 4, !tbaa !8
  %11 = icmp sgt i32 %.val.i, 0
  br i1 %11, label %12, label %14, !prof !11

12:                                               ; preds = %10
  %13 = add nuw i32 %.val.i, 1
  store i32 %13, ptr %7, align 4, !tbaa !8
  br label %lean_inc.exit32

14:                                               ; preds = %10
  %.not.i = icmp eq i32 %.val.i, 0
  br i1 %.not.i, label %lean_inc.exit32, label %15

15:                                               ; preds = %14
  tail call void @lean_inc_ref_cold(ptr noundef nonnull %7) #4
  br label %lean_inc.exit32

lean_inc.exit32:                                  ; preds = %15, %14, %12, %5
  tail call void @lean_inc_heartbeat() #4
  %16 = tail call noalias ptr @mi_malloc_small(i64 noundef 48) #4
  %17 = icmp eq ptr %16, null
  br i1 %17, label %18, label %lean_alloc_closure.exit

18:                                               ; preds = %lean_inc.exit32
  tail call void @lean_internal_panic_out_of_memory() #5
  unreachable

lean_alloc_closure.exit:                          ; preds = %lean_inc.exit32
  %19 = getelementptr inbounds nuw i8, ptr %16, i64 4
  store i32 1, ptr %16, align 4, !tbaa !8
  store i32 -184549328, ptr %19, align 4
  %20 = getelementptr inbounds nuw i8, ptr %16, i64 8
  store ptr @l_ST_Prim_mkRef___boxed, ptr %20, align 8, !tbaa !4
  %21 = getelementptr inbounds nuw i8, ptr %16, i64 16
  store i16 4, ptr %21, align 8, !tbaa !12
  %22 = getelementptr inbounds nuw i8, ptr %16, i64 18
  store i16 3, ptr %22, align 2, !tbaa !12
  %23 = getelementptr inbounds nuw i8, ptr %16, i64 24
  store ptr inttoptr (i64 1 to ptr), ptr %23, align 8, !tbaa !4
  %24 = getelementptr inbounds nuw i8, ptr %16, i64 32
  store ptr inttoptr (i64 1 to ptr), ptr %24, align 8, !tbaa !4
  %25 = getelementptr inbounds nuw i8, ptr %16, i64 40
  store ptr %4, ptr %25, align 8, !tbaa !4
  %26 = ptrtoint ptr %1 to i64
  %27 = and i64 %26, 1
  %.not47 = icmp eq i64 %27, 0
  br i1 %.not47, label %28, label %lean_inc.exit31

28:                                               ; preds = %lean_alloc_closure.exit
  %.val.i33 = load i32, ptr %1, align 4, !tbaa !8
  %29 = icmp sgt i32 %.val.i33, 0
  br i1 %29, label %30, label %32, !prof !11

30:                                               ; preds = %28
  %31 = add nuw i32 %.val.i33, 1
  store i32 %31, ptr %1, align 4, !tbaa !8
  br label %lean_inc.exit31

32:                                               ; preds = %28
  %.not.i34 = icmp eq i32 %.val.i33, 0
  br i1 %.not.i34, label %lean_inc.exit31, label %33

33:                                               ; preds = %32
  tail call void @lean_inc_ref_cold(ptr noundef nonnull %1) #4
  br label %lean_inc.exit31

lean_inc.exit31:                                  ; preds = %33, %32, %30, %lean_alloc_closure.exit
  %34 = tail call ptr @lean_apply_2(ptr noundef %1, ptr noundef nonnull inttoptr (i64 1 to ptr), ptr noundef nonnull %16) #4
  br i1 %.not, label %35, label %lean_inc.exit30

35:                                               ; preds = %lean_inc.exit31
  %.val.i36 = load i32, ptr %7, align 4, !tbaa !8
  %36 = icmp sgt i32 %.val.i36, 0
  br i1 %36, label %37, label %39, !prof !11

37:                                               ; preds = %35
  %38 = add nuw i32 %.val.i36, 1
  store i32 %38, ptr %7, align 4, !tbaa !8
  br label %lean_inc.exit30

39:                                               ; preds = %35
  %.not.i37 = icmp eq i32 %.val.i36, 0
  br i1 %.not.i37, label %lean_inc.exit30, label %40

40:                                               ; preds = %39
  tail call void @lean_inc_ref_cold(ptr noundef nonnull %7) #4
  br label %lean_inc.exit30

lean_inc.exit30:                                  ; preds = %40, %39, %37, %lean_inc.exit31
  %41 = ptrtoint ptr %0 to i64
  %42 = and i64 %41, 1
  %.not48 = icmp eq i64 %42, 0
  br i1 %.not48, label %43, label %lean_inc.exit29

43:                                               ; preds = %lean_inc.exit30
  %.val.i39 = load i32, ptr %0, align 4, !tbaa !8
  %44 = icmp sgt i32 %.val.i39, 0
  br i1 %44, label %45, label %47, !prof !11

45:                                               ; preds = %43
  %46 = add nuw i32 %.val.i39, 1
  store i32 %46, ptr %0, align 4, !tbaa !8
  br label %lean_inc.exit29

47:                                               ; preds = %43
  %.not.i40 = icmp eq i32 %.val.i39, 0
  br i1 %.not.i40, label %lean_inc.exit29, label %48

48:                                               ; preds = %47
  tail call void @lean_inc_ref_cold(ptr noundef nonnull %0) #4
  br label %lean_inc.exit29

lean_inc.exit29:                                  ; preds = %48, %47, %45, %lean_inc.exit30
  tail call void @lean_inc_heartbeat() #4
  %49 = tail call noalias ptr @mi_malloc_small(i64 noundef 56) #4
  %50 = icmp eq ptr %49, null
  br i1 %50, label %51, label %lean_alloc_closure.exit42

51:                                               ; preds = %lean_inc.exit29
  tail call void @lean_internal_panic_out_of_memory() #5
  unreachable

lean_alloc_closure.exit42:                        ; preds = %lean_inc.exit29
  %52 = getelementptr inbounds nuw i8, ptr %49, i64 4
  store i32 1, ptr %49, align 4, !tbaa !8
  store i32 -184549320, ptr %52, align 4
  %53 = getelementptr inbounds nuw i8, ptr %49, i64 8
  store ptr @l_StateRefT_x27_run___rarg___lambda__3, ptr %53, align 8, !tbaa !4
  %54 = getelementptr inbounds nuw i8, ptr %49, i64 16
  store i16 5, ptr %54, align 8, !tbaa !12
  %55 = getelementptr inbounds nuw i8, ptr %49, i64 18
  store i16 4, ptr %55, align 2, !tbaa !12
  %56 = getelementptr inbounds nuw i8, ptr %49, i64 24
  store ptr %3, ptr %56, align 8, !tbaa !4
  %57 = getelementptr inbounds nuw i8, ptr %49, i64 32
  store ptr %1, ptr %57, align 8, !tbaa !4
  %58 = getelementptr inbounds nuw i8, ptr %49, i64 40
  store ptr %0, ptr %58, align 8, !tbaa !4
  %59 = getelementptr inbounds nuw i8, ptr %49, i64 48
  store ptr %7, ptr %59, align 8, !tbaa !4
  br i1 %.not, label %60, label %lean_inc.exit

60:                                               ; preds = %lean_alloc_closure.exit42
  %.val.i43 = load i32, ptr %7, align 4, !tbaa !8
  %61 = icmp sgt i32 %.val.i43, 0
  br i1 %61, label %62, label %64, !prof !11

62:                                               ; preds = %60
  %63 = add nuw i32 %.val.i43, 1
  store i32 %63, ptr %7, align 4, !tbaa !8
  br label %lean_inc.exit

64:                                               ; preds = %60
  %.not.i44 = icmp eq i32 %.val.i43, 0
  br i1 %.not.i44, label %lean_inc.exit, label %65

65:                                               ; preds = %64
  tail call void @lean_inc_ref_cold(ptr noundef nonnull %7) #4
  br label %lean_inc.exit

lean_inc.exit:                                    ; preds = %65, %64, %62, %lean_alloc_closure.exit42
  %66 = tail call ptr @lean_apply_4(ptr noundef %7, ptr noundef nonnull inttoptr (i64 1 to ptr), ptr noundef nonnull inttoptr (i64 1 to ptr), ptr noundef %34, ptr noundef nonnull %49) #4
  tail call void @lean_inc_heartbeat() #4
  %67 = tail call noalias ptr @mi_malloc_small(i64 noundef 32) #4
  %68 = icmp eq ptr %67, null
  br i1 %68, label %69, label %lean_alloc_closure.exit46

69:                                               ; preds = %lean_inc.exit
  tail call void @lean_internal_panic_out_of_memory() #5
  unreachable

lean_alloc_closure.exit46:                        ; preds = %lean_inc.exit
  %70 = getelementptr inbounds nuw i8, ptr %67, i64 4
  store i32 1, ptr %67, align 4, !tbaa !8
  store i32 -184549344, ptr %70, align 4
  %71 = getelementptr inbounds nuw i8, ptr %67, i64 8
  store ptr @l_StateRefT_x27_run_x27___rarg___lambda__1, ptr %71, align 8, !tbaa !4
  %72 = getelementptr inbounds nuw i8, ptr %67, i64 16
  store i16 2, ptr %72, align 8, !tbaa !12
  %73 = getelementptr inbounds nuw i8, ptr %67, i64 18
  store i16 1, ptr %73, align 2, !tbaa !12
  %74 = getelementptr inbounds nuw i8, ptr %67, i64 24
  store ptr %0, ptr %74, align 8, !tbaa !4
  %75 = tail call ptr @lean_apply_4(ptr noundef %7, ptr noundef nonnull inttoptr (i64 1 to ptr), ptr noundef nonnull inttoptr (i64 1 to ptr), ptr noundef %66, ptr noundef nonnull %67) #4
  ret ptr %75
}